; ModuleID = '17/803.c'
source_filename = "17/803.c"
target datalayout = "e-m:e-p270:32:32-p271:32:32-p272:64:64-i64:64-f80:128-n8:16:32:64-S128"
target triple = "x86_64-pc-linux-gnu"

@.str = private unnamed_addr constant [3 x i8] c"%d\00", align 1
@.str.1 = private unnamed_addr constant [7 x i8] c"%s\0A%s\0A\00", align 1

; Function Attrs: noinline nounwind uwtable
define dso_local i32 @main() #0 {
  %1 = alloca i32, align 4
  %2 = alloca i32, align 4
  %3 = alloca i32, align 4
  %4 = alloca i32, align 4
  %5 = alloca i32, align 4
  %6 = alloca i32, align 4
  %7 = alloca i32, align 4
  %8 = alloca [200 x i8], align 16
  %9 = alloca [200 x i8], align 16
  %10 = alloca [200 x i8], align 16
  store i32 0, i32* %1, align 4
  %11 = call i32 (i8*, ...) @__isoc99_scanf(i8* getelementptr inbounds ([3 x i8], [3 x i8]* @.str, i64 0, i64 0), i32* %2)
  %12 = call i32 @getchar()
  store i32 0, i32* %3, align 4
  br label %13

13:                                               ; preds = %110, %0
  %14 = load i32, i32* %3, align 4
  %15 = load i32, i32* %2, align 4
  %16 = icmp slt i32 %14, %15
  br i1 %16, label %17, label %113

17:                                               ; preds = %13
  %18 = getelementptr inbounds [200 x i8], [200 x i8]* %8, i64 0, i64 0
  %19 = call i32 (i8*, ...) bitcast (i32 (...)* @gets to i32 (i8*, ...)*)(i8* %18)
  %20 = getelementptr inbounds [200 x i8], [200 x i8]* %8, i64 0, i64 0
  %21 = call i64 @strlen(i8* %20) #4
  %22 = trunc i64 %21 to i32
  store i32 %22, i32* %6, align 4
  %23 = getelementptr inbounds [200 x i8], [200 x i8]* %10, i64 0, i64 0
  %24 = getelementptr inbounds [200 x i8], [200 x i8]* %8, i64 0, i64 0
  %25 = call i8* @strcpy(i8* %23, i8* %24) #5
  %26 = load i32, i32* %6, align 4
  %27 = sext i32 %26 to i64
  %28 = getelementptr inbounds [200 x i8], [200 x i8]* %9, i64 0, i64 %27
  store i8 0, i8* %28, align 1
  store i32 0, i32* %4, align 4
  br label %29

29:                                               ; preds = %37, %17
  %30 = load i32, i32* %4, align 4
  %31 = load i32, i32* %6, align 4
  %32 = icmp slt i32 %30, %31
  br i1 %32, label %33, label %40

33:                                               ; preds = %29
  %34 = load i32, i32* %4, align 4
  %35 = sext i32 %34 to i64
  %36 = getelementptr inbounds [200 x i8], [200 x i8]* %9, i64 0, i64 %35
  store i8 32, i8* %36, align 1
  br label %37

37:                                               ; preds = %33
  %38 = load i32, i32* %4, align 4
  %39 = add nsw i32 %38, 1
  store i32 %39, i32* %4, align 4
  br label %29

40:                                               ; preds = %29
  %41 = load i32, i32* %6, align 4
  %42 = sub nsw i32 %41, 1
  store i32 %42, i32* %4, align 4
  br label %43

43:                                               ; preds = %83, %40
  %44 = load i32, i32* %4, align 4
  %45 = icmp sge i32 %44, 0
  br i1 %45, label %46, label %86

46:                                               ; preds = %43
  %47 = load i32, i32* %4, align 4
  %48 = sext i32 %47 to i64
  %49 = getelementptr inbounds [200 x i8], [200 x i8]* %8, i64 0, i64 %48
  %50 = load i8, i8* %49, align 1
  %51 = sext i8 %50 to i32
  %52 = icmp eq i32 %51, 40
  br i1 %52, label %53, label %82

53:                                               ; preds = %46
  store i32 0, i32* %5, align 4
  %54 = load i32, i32* %4, align 4
  store i32 %54, i32* %7, align 4
  br label %55

55:                                               ; preds = %71, %53
  %56 = load i32, i32* %7, align 4
  %57 = load i32, i32* %6, align 4
  %58 = icmp slt i32 %56, %57
  br i1 %58, label %59, label %74

59:                                               ; preds = %55
  %60 = load i32, i32* %7, align 4
  %61 = sext i32 %60 to i64
  %62 = getelementptr inbounds [200 x i8], [200 x i8]* %8, i64 0, i64 %61
  %63 = load i8, i8* %62, align 1
  %64 = sext i8 %63 to i32
  %65 = icmp eq i32 %64, 41
  br i1 %65, label %66, label %70

66:                                               ; preds = %59
  store i32 1, i32* %5, align 4
  %67 = load i32, i32* %7, align 4
  %68 = sext i32 %67 to i64
  %69 = getelementptr inbounds [200 x i8], [200 x i8]* %8, i64 0, i64 %68
  store i8 97, i8* %69, align 1
  br label %74

70:                                               ; preds = %59
  br label %71

71:                                               ; preds = %70
  %72 = load i32, i32* %7, align 4
  %73 = add nsw i32 %72, 1
  store i32 %73, i32* %7, align 4
  br label %55

74:                                               ; preds = %66, %55
  %75 = load i32, i32* %5, align 4
  %76 = icmp eq i32 %75, 0
  br i1 %76, label %77, label %81

77:                                               ; preds = %74
  %78 = load i32, i32* %4, align 4
  %79 = sext i32 %78 to i64
  %80 = getelementptr inbounds [200 x i8], [200 x i8]* %9, i64 0, i64 %79
  store i8 36, i8* %80, align 1
  br label %81

81:                                               ; preds = %77, %74
  br label %82

82:                                               ; preds = %81, %46
  br label %83

83:                                               ; preds = %82
  %84 = load i32, i32* %4, align 4
  %85 = add nsw i32 %84, -1
  store i32 %85, i32* %4, align 4
  br label %43

86:                                               ; preds = %43
  store i32 0, i32* %4, align 4
  br label %87

87:                                               ; preds = %103, %86
  %88 = load i32, i32* %4, align 4
  %89 = load i32, i32* %6, align 4
  %90 = icmp slt i32 %88, %89
  br i1 %90, label %91, label %106

91:                                               ; preds = %87
  %92 = load i32, i32* %4, align 4
  %93 = sext i32 %92 to i64
  %94 = getelementptr inbounds [200 x i8], [200 x i8]* %8, i64 0, i64 %93
  %95 = load i8, i8* %94, align 1
  %96 = sext i8 %95 to i32
  %97 = icmp eq i32 %96, 41
  br i1 %97, label %98, label %102

98:                                               ; preds = %91
  %99 = load i32, i32* %4, align 4
  %100 = sext i32 %99 to i64
  %101 = getelementptr inbounds [200 x i8], [200 x i8]* %9, i64 0, i64 %100
  store i8 63, i8* %101, align 1
  br label %102

102:                                              ; preds = %98, %91
  br label %103

103:                                              ; preds = %102
  %104 = load i32, i32* %4, align 4
  %105 = add nsw i32 %104, 1
  store i32 %105, i32* %4, align 4
  br label %87

106:                                              ; preds = %87
  %107 = getelementptr inbounds [200 x i8], [200 x i8]* %10, i64 0, i64 0
  %108 = getelementptr inbounds [200 x i8], [200 x i8]* %9, i64 0, i64 0
  %109 = call i32 (i8*, ...) @printf(i8* getelementptr inbounds ([7 x i8], [7 x i8]* @.str.1, i64 0, i64 0), i8* %107, i8* %108)
  br label %110

110:                                              ; preds = %106
  %111 = load i32, i32* %3, align 4
  %112 = add nsw i32 %111, 1
  store i32 %112, i32* %3, align 4
  br label %13

113:                                              ; preds = %13
  %114 = load i32, i32* %1, align 4
  ret i32 %114
}

declare dso_local i32 @__isoc99_scanf(i8*, ...) #1

declare dso_local i32 @getchar() #1

declare dso_local i32 @gets(...) #1

; Function Attrs: nounwind readonly
declare dso_local i64 @strlen(i8*) #2

; Function Attrs: nounwind
declare dso_local i8* @strcpy(i8*, i8*) #3

declare dso_local i32 @printf(i8*, ...) #1


!llvm.module.flags = !{!0}
!llvm.ident = !{!1}

!0 = !{i32 1, !"wchar_size", i32 4}
!1 = !{!"clang version 10.0.0-4ubuntu1 "}
